Certificate:
    Data:
        Version: 1 (0x0)
        Serial Number: 1 (0x1)
    Signature Algorithm: md5WithRSAEncryption
        Issuer: C=US, ST=Unset, L=Unset, O=Unset, CN=www.example.com
        Validity
            Not Before: Jun  5 00:31:57 2013 GMT
            Not After : Jun  5 00:31:57 2014 GMT
        Subject: C=US, ST=Unset, O=Unset, CN=www.example.com
        Subject Public Key Info:
            Public Key Algorithm: rsaEncryption
                Public-Key: (1024 bit)
                Modulus:
                    00:a4:2e:1b:c8:8d:18:44:a9:fa:8f:b6:58:a5:9d:
                    04:39:47:29:17:6a:72:fe:2f:61:67:f7:24:7a:d8:
                    89:4e:66:a8:56:a2:75:fb:ce:2d:fc:01:4e:99:c4:
                    fd:9a:50:96:57:97:a9:50:ac:21:00:6f:5d:d0:e0:
                    0c:d2:8b:30:38:c5:ea:d0:27:32:ee:c0:6b:b9:25:
                    36:f4:92:ef:75:5f:75:87:0c:c4:0a:fc:c4:9a:67:
                    0d:a5:c0:09:46:13:0a:aa:11:d8:14:a2:62:bd:60:
                    80:a1:fd:7b:5d:ca:43:56:66:61:59:6d:ca:e9:95:
                    52:49:c1:3c:c9:f7:5b:5d:8d
                Exponent: 65537 (0x10001)
    Signature Algorithm: md5WithRSAEncryption
         13:70:32:40:98:96:db:ee:08:ef:8a:e7:ed:3d:93:b8:e9:77:
         ce:39:13:e0:af:30:99:46:2d:dc:09:10:c1:de:79:ea:6d:5d:
         56:1d:ed:d1:e8:8d:93:85:3e:4c:45:ac:f7:b1:6c:7e:ad:32:
         cb:3b:15:10:58:6b:8d:de:fb:e3:74:2d:98:bd:26:7b:93:d4:
         2f:da:90:2e:5a:41:44:37:68:0d:1d:00:c7:c8:4a:ea:01:ab:
         00:03:65:8c:e9:b9:d4:d6:79:50:01:ad:14:b4:7a:be:e7:26:
         cb:10:65:fe:ab:d2:af:bf:7f:eb:cd:dc:73:c3:4c:bf:34:bb:
         de:c8
-----BEGIN CERTIFICATE-----
MIICDTCCAXYCAQEwDQYJKoZIhvcNAQEEBQAwVzELMAkGA1UEBhMCVVMxDjAMBgNV
BAgTBVVuc2V0MQ4wDAYDVQQHEwVVbnNldDEOMAwGA1UEChMFVW5zZXQxGDAWBgNV
BAMTD3d3dy5leGFtcGxlLmNvbTAeFw0xMzA2MDUwMDMxNTdaFw0xNDA2MDUwMDMx
NTdaMEcxCzAJBgNVBAYTAlVTMQ4wDAYDVQQIEwVVbnNldDEOMAwGA1UEChMFVW5z
ZXQxGDAWBgNVBAMTD3d3dy5leGFtcGxlLmNvbTCBnzANBgkqhkiG9w0BAQEFAAOB
jQAwgYkCgYEApC4byI0YRKn6j7ZYpZ0EOUcpF2py/i9hZ/cketiJTmaoVqJ1+84t
/AFOmcT9mlCWV5epUKwhAG9d0OAM0oswOMXq0Ccy7sBruSU29JLvdV91hwzECvzE
mmcNpcAJRhMKqhHYFKJivWCAof17XcpDVmZhWW3K6ZVSScE8yfdbXY0CAwEAATAN
BgkqhkiG9w0BAQQFAAOBgQATcDJAmJbb7gjviuftPZO46XfOORPgrzCZRi3cCRDB
3nnqbV1WHe3R6I2ThT5MRaz3sWx+rTLLOxUQWGuN3vvjdC2YvSZ7k9Qv2pAuWkFE
N2gNHQDHyErqAasAA2WM6bnU1nlQAa0UtHq+5ybLEGX+q9Kvv3/rzdxzw0y/NLve
yA==
-----END CERTIFICATE-----
